target datalayout = "e-m:e-p270:32:32-p271:32:32-p272:64:64-i64:64-i128:128-f80:128-n8:16:32:64-S128"
target triple = "x86_64-pc-linux-gnu"

%struct.sentinelState = type { [41 x i8], i64, ptr, i32, i32, i64, i64, ptr, ptr, i32, i64, i32, ptr, ptr, i32, i32 }
%struct.sentinelRedisInstance = type { i32, ptr, ptr, i64, ptr, ptr, i64, i64, i64, i64, i64, i64, i64, i64, i64, ptr, i32, i64, i64, ptr, ptr, i32, i32, ptr, ptr, i64, i32, i32, i64, ptr, ptr, i32, i32, i64, ptr, i64, i64, i32, i64, i64, i64, i64, ptr, ptr, ptr, ptr }
%struct.instanceLink = type { i32, i32, i32, ptr, ptr, i64, i64, i64, i64, i64, i64, i64, i64 }

@sentinel = dso_local global %struct.sentinelState zeroinitializer, align 8
@.str.21 = private unnamed_addr constant [11 x i8] c"sentinel.c\00", align 1
@.str.42 = private unnamed_addr constant [25 x i8] c"ri->flags & SRI_SENTINEL\00", align 1

; Function Attrs: nounwind uwtable
define dso_local i32 @sentinelTryConnectionSharing(ptr noundef %0) #0 {
  %2 = alloca i32, align 4
  %3 = alloca ptr, align 8
  %4 = alloca ptr, align 8
  %5 = alloca ptr, align 8
  %6 = alloca i32, align 4
  %7 = alloca ptr, align 8
  %8 = alloca ptr, align 8
  store ptr %0, ptr %3, align 8, !tbaa !11
  %9 = load ptr, ptr %3, align 8, !tbaa !11
  %10 = getelementptr inbounds nuw %struct.sentinelRedisInstance, ptr %9, i32 0, i32 0
  %11 = load i32, ptr %10, align 8, !tbaa !34
  %12 = and i32 %11, 4
  %13 = icmp ne i32 %12, 0
  %14 = xor i1 %13, true
  %15 = xor i1 %14, true
  %16 = zext i1 %15 to i32
  %17 = sext i32 %16 to i64
  %18 = call i64 @llvm.expect.i64(i64 %17, i64 1)
  %19 = icmp ne i64 %18, 0
  br i1 %19, label %20, label %21

20:                                               ; preds = %1
  br label %23

21:                                               ; preds = %1
  call void @_serverAssert(ptr noundef @.str.42, ptr noundef @.str.21, i32 noundef 1087)
  call void @abort() #15
  unreachable

22:                                               ; No predecessors!
  br label %23

23:                                               ; preds = %22, %20
  call void @llvm.lifetime.start.p0(i64 8, ptr %4) #16
  call void @llvm.lifetime.start.p0(i64 8, ptr %5) #16
  %24 = load ptr, ptr %3, align 8, !tbaa !11
  %25 = getelementptr inbounds nuw %struct.sentinelRedisInstance, ptr %24, i32 0, i32 2
  %26 = load ptr, ptr %25, align 8, !tbaa !24
  %27 = icmp eq ptr %26, null
  br i1 %27, label %28, label %29

28:                                               ; preds = %23
  store i32 -1, ptr %2, align 4
  store i32 1, ptr %6, align 4
  br label %90

29:                                               ; preds = %23
  %30 = load ptr, ptr %3, align 8, !tbaa !11
  %31 = getelementptr inbounds nuw %struct.sentinelRedisInstance, ptr %30, i32 0, i32 5
  %32 = load ptr, ptr %31, align 8, !tbaa !22
  %33 = getelementptr inbounds nuw %struct.instanceLink, ptr %32, i32 0, i32 0
  %34 = load i32, ptr %33, align 8, !tbaa !130
  %35 = icmp sgt i32 %34, 1
  br i1 %35, label %36, label %37

36:                                               ; preds = %29
  store i32 -1, ptr %2, align 4
  store i32 1, ptr %6, align 4
  br label %90

37:                                               ; preds = %29
  %38 = load ptr, ptr getelementptr inbounds nuw (%struct.sentinelState, ptr @sentinel, i32 0, i32 2), align 8, !tbaa !65
  %39 = call ptr @dictGetIterator(ptr noundef %38)
  store ptr %39, ptr %4, align 8, !tbaa !87
  br label %40

40:                                               ; preds = %86, %37
  %41 = load ptr, ptr %4, align 8, !tbaa !87
  %42 = call ptr @dictNext(ptr noundef %41)
  store ptr %42, ptr %5, align 8, !tbaa !89
  %43 = icmp ne ptr %42, null
  br i1 %43, label %44, label %88

44:                                               ; preds = %40
  call void @llvm.lifetime.start.p0(i64 8, ptr %7) #16
  %45 = load ptr, ptr %5, align 8, !tbaa !89
  %46 = call ptr @dictGetVal(ptr noundef %45)
  store ptr %46, ptr %7, align 8, !tbaa !11
  call void @llvm.lifetime.start.p0(i64 8, ptr %8) #16
  %47 = load ptr, ptr %7, align 8, !tbaa !11
  %48 = load ptr, ptr %3, align 8, !tbaa !11
  %49 = getelementptr inbounds nuw %struct.sentinelRedisInstance, ptr %48, i32 0, i32 29
  %50 = load ptr, ptr %49, align 8, !tbaa !35
  %51 = icmp eq ptr %47, %50
  br i1 %51, label %52, label %53

52:                                               ; preds = %44
  store i32 2, ptr %6, align 4
  br label %86, !llvm.loop !168

53:                                               ; preds = %44
  %54 = load ptr, ptr %7, align 8, !tbaa !11
  %55 = getelementptr inbounds nuw %struct.sentinelRedisInstance, ptr %54, i32 0, i32 19
  %56 = load ptr, ptr %55, align 8, !tbaa !13
  %57 = load ptr, ptr %3, align 8, !tbaa !11
  %58 = getelementptr inbounds nuw %struct.sentinelRedisInstance, ptr %57, i32 0, i32 2
  %59 = load ptr, ptr %58, align 8, !tbaa !24
  %60 = call ptr @getSentinelRedisInstanceByAddrAndRunID(ptr noundef %56, ptr noundef null, i32 noundef 0, ptr noundef %59)
  store ptr %60, ptr %8, align 8, !tbaa !11
  %61 = load ptr, ptr %8, align 8, !tbaa !11
  %62 = icmp eq ptr %61, null
  br i1 %62, label %63, label %64

63:                                               ; preds = %53
  store i32 2, ptr %6, align 4
  br label %86, !llvm.loop !168

64:                                               ; preds = %53
  %65 = load ptr, ptr %8, align 8, !tbaa !11
  %66 = load ptr, ptr %3, align 8, !tbaa !11
  %67 = icmp eq ptr %65, %66
  br i1 %67, label %68, label %69

68:                                               ; preds = %64
  store i32 2, ptr %6, align 4
  br label %86, !llvm.loop !168

69:                                               ; preds = %64
  %70 = load ptr, ptr %3, align 8, !tbaa !11
  %71 = getelementptr inbounds nuw %struct.sentinelRedisInstance, ptr %70, i32 0, i32 5
  %72 = load ptr, ptr %71, align 8, !tbaa !22
  %73 = call ptr @releaseInstanceLink(ptr noundef %72, ptr noundef null)
  %74 = load ptr, ptr %8, align 8, !tbaa !11
  %75 = getelementptr inbounds nuw %struct.sentinelRedisInstance, ptr %74, i32 0, i32 5
  %76 = load ptr, ptr %75, align 8, !tbaa !22
  %77 = load ptr, ptr %3, align 8, !tbaa !11
  %78 = getelementptr inbounds nuw %struct.sentinelRedisInstance, ptr %77, i32 0, i32 5
  store ptr %76, ptr %78, align 8, !tbaa !22
  %79 = load ptr, ptr %8, align 8, !tbaa !11
  %80 = getelementptr inbounds nuw %struct.sentinelRedisInstance, ptr %79, i32 0, i32 5
  %81 = load ptr, ptr %80, align 8, !tbaa !22
  %82 = getelementptr inbounds nuw %struct.instanceLink, ptr %81, i32 0, i32 0
  %83 = load i32, ptr %82, align 8, !tbaa !130
  %84 = add nsw i32 %83, 1
  store i32 %84, ptr %82, align 8, !tbaa !130
  %85 = load ptr, ptr %4, align 8, !tbaa !87
  call void @dictReleaseIterator(ptr noundef %85)
  store i32 0, ptr %2, align 4
  store i32 1, ptr %6, align 4
  br label %86

86:                                               ; preds = %69, %68, %63, %52
  call void @llvm.lifetime.end.p0(i64 8, ptr %8) #16
  call void @llvm.lifetime.end.p0(i64 8, ptr %7) #16
  %87 = load i32, ptr %6, align 4
  switch i32 %87, label %90 [
    i32 2, label %40
  ]

88:                                               ; preds = %40
  %89 = load ptr, ptr %4, align 8, !tbaa !87
  call void @dictReleaseIterator(ptr noundef %89)
  store i32 -1, ptr %2, align 4
  store i32 1, ptr %6, align 4
  br label %90

90:                                               ; preds = %88, %86, %36, %28
  call void @llvm.lifetime.end.p0(i64 8, ptr %5) #16
  call void @llvm.lifetime.end.p0(i64 8, ptr %4) #16
  %91 = load i32, ptr %2, align 4
  ret i32 %91
}