; Function Attrs: nounwind uwtable
define dso_local range(i32 -1, 1) i32 @sentinelTryConnectionSharing(ptr noundef captures(address) %0) local_unnamed_addr #0 {
  %2 = load i32, ptr %0, align 8, !tbaa !34
  %3 = and i32 %2, 4
  %.not = icmp eq i32 %3, 0
  br i1 %.not, label %4, label %5, !prof !144

4:                                                ; preds = %1
  tail call void @_serverAssert(ptr noundef nonnull @.str.42, ptr noundef nonnull @.str.21, i32 noundef 1087) #30
  tail call void @abort() #35
  unreachable

5:                                                ; preds = %1
  %6 = getelementptr inbounds nuw i8, ptr %0, i64 16
  %7 = load ptr, ptr %6, align 8, !tbaa !21
  %8 = icmp eq ptr %7, null
  br i1 %8, label %39, label %9

9:                                                ; preds = %5
  %10 = getelementptr inbounds nuw i8, ptr %0, i64 40
  %11 = load ptr, ptr %10, align 8, !tbaa !19
  %12 = load i32, ptr %11, align 8, !tbaa !114
  %13 = icmp sgt i32 %12, 1
  br i1 %13, label %39, label %14

14:                                               ; preds = %9
  %15 = load ptr, ptr getelementptr inbounds nuw (i8, ptr @sentinel, i64 56), align 8, !tbaa !65
  %16 = tail call ptr @dictGetIterator(ptr noundef %15) #30
  %17 = tail call ptr @dictNext(ptr noundef %16) #30
  %.not2324 = icmp eq ptr %17, null
  br i1 %.not2324, label %.sink.split, label %.lr.ph

.lr.ph:                                           ; preds = %14
  %18 = getelementptr inbounds nuw i8, ptr %0, i64 216
  br label %19

19:                                               ; preds = %.lr.ph, %37
  %20 = phi ptr [ %17, %.lr.ph ], [ %38, %37 ]
  %21 = tail call ptr @dictGetVal(ptr noundef nonnull %20) #30
  %22 = load ptr, ptr %18, align 8, !tbaa !35
  %23 = icmp eq ptr %21, %22
  br i1 %23, label %37, label %24, !llvm.loop !145

24:                                               ; preds = %19
  %25 = getelementptr inbounds nuw i8, ptr %21, i64 152
  %26 = load ptr, ptr %25, align 8, !tbaa !5
  %27 = load ptr, ptr %6, align 8, !tbaa !21
  %28 = tail call ptr @getSentinelRedisInstanceByAddrAndRunID(ptr noundef %26, ptr noundef null, i32 noundef 0, ptr noundef %27)
  %29 = icmp eq ptr %28, null
  %30 = icmp eq ptr %28, %0
  %or.cond = or i1 %29, %30
  br i1 %or.cond, label %37, label %.critedge, !llvm.loop !145

.critedge:                                        ; preds = %24
  %31 = load ptr, ptr %10, align 8, !tbaa !19
  %32 = tail call ptr @releaseInstanceLink(ptr noundef %31, ptr noundef null)
  %33 = getelementptr inbounds nuw i8, ptr %28, i64 40
  %34 = load ptr, ptr %33, align 8, !tbaa !19
  store ptr %34, ptr %10, align 8, !tbaa !19
  %35 = load i32, ptr %34, align 8, !tbaa !114
  %36 = add nsw i32 %35, 1
  store i32 %36, ptr %34, align 8, !tbaa !114
  br label %.sink.split

37:                                               ; preds = %24, %19
  %38 = tail call ptr @dictNext(ptr noundef %16) #30
  %.not23 = icmp eq ptr %38, null
  br i1 %.not23, label %.sink.split, label %19

.sink.split:                                      ; preds = %37, %14, %.critedge
  %.0.ph = phi i32 [ 0, %.critedge ], [ -1, %14 ], [ -1, %37 ]
  tail call void @dictReleaseIterator(ptr noundef %16) #30
  br label %39

39:                                               ; preds = %.sink.split, %9, %5
  %.0 = phi i32 [ -1, %5 ], [ -1, %9 ], [ %.0.ph, %.sink.split ]
  ret i32 %.0
}